; Function Attrs: mustprogress uwtable
define hidden noundef zeroext i1 @_ZNK4cvc58internal6theory7strings11SolverState18getPendingConflictERNS2_9InferInfoE(ptr noundef nonnull align 8 dereferenceable(560) %0, ptr noundef nonnull align 8 dereferenceable(200) %1) local_unnamed_addr #3 align 2 {
  %3 = getelementptr inbounds nuw i8, ptr %0, i64 296
  %4 = load i8, ptr %3, align 8, !tbaa !54, !range !60, !noundef !61
  %5 = trunc nuw i8 %4 to i1
  br i1 %5, label %6, label %9

6:                                                ; preds = %2
  %7 = getelementptr inbounds nuw i8, ptr %0, i64 304
  %8 = tail call noundef nonnull align 8 dereferenceable(200) ptr @_ZN4cvc58internal6theory7strings9InferInfoaSERKS3_(ptr noundef nonnull align 8 dereferenceable(200) %1, ptr noundef nonnull align 8 dereferenceable(200) %7)
  br label %9

9:                                                ; preds = %2, %6
  ret i1 %5
}